target datalayout = "e-m:e-p270:32:32-p271:32:32-p272:64:64-i64:64-i128:128-f80:128-n8:16:32:64-S128"
target triple = "x86_64-unknown-linux-gnu"

%"class.QuantLib::Date" = type { i64 }
%"class.boost::detail::shared_count" = type { ptr }
%"class.boost::shared_ptr.54" = type { ptr, %"class.boost::detail::shared_count" }
%"class.boost::shared_ptr.55" = type { ptr, %"class.boost::detail::shared_count" }
%"class.QuantLib::NumericHaganPricer::ConundrumIntegrand" = type { %"class.QuantLib::NumericHaganPricer::Function", %"class.boost::shared_ptr.55", double, double, %"class.QuantLib::Date", %"class.QuantLib::Date", double, i32, %"class.boost::shared_ptr.54" }
%"class.QuantLib::NumericHaganPricer::Function" = type { ptr }

@.str.25 = private unnamed_addr constant [8 x i8] c"px != 0\00", align 1
@.str.26 = private unnamed_addr constant [102 x i8] c"generated/home/dtcxzyw/WorkSpace/SDK/vcpkg/installed/x64-linux/include/boost/smart_ptr/shared_ptr.hpp\00", align 1
@__PRETTY_FUNCTION__._ZNK5boost10shared_ptrIN8QuantLib9GFunctionEEdeEv = private unnamed_addr constant [132 x i8] c"typename boost::detail::sp_dereference<T>::type boost::shared_ptr<QuantLib::GFunction>::operator*() const [T = QuantLib::GFunction]\00", align 1
@__PRETTY_FUNCTION__._ZNK5boost10shared_ptrIN8QuantLib9GFunctionEEptEv = private unnamed_addr constant [135 x i8] c"typename boost::detail::sp_member_access<T>::type boost::shared_ptr<QuantLib::GFunction>::operator->() const [T = QuantLib::GFunction]\00", align 1

; Function Attrs: mustprogress uwtable
define linkonce_odr noundef ptr @_ZNK5boost10shared_ptrIN8QuantLib9GFunctionEEptEv(ptr noundef nonnull align 8 dereferenceable(16) %this) #2 comdat align 2 {
entry:
  %this.addr = alloca ptr, align 8
  store ptr %this, ptr %this.addr, align 8, !tbaa !3
  %this1 = load ptr, ptr %this.addr, align 8
  %px = getelementptr inbounds nuw %"class.boost::shared_ptr.54", ptr %this1, i32 0, i32 0
  %0 = load ptr, ptr %px, align 8, !tbaa !59
  %cmp = icmp ne ptr %0, null
  %lnot = xor i1 %cmp, true
  %lnot2 = xor i1 %lnot, true
  %conv = zext i1 %lnot2 to i64
  %expval = call i64 @llvm.expect.i64(i64 %conv, i64 1)
  %tobool = icmp ne i64 %expval, 0
  br i1 %tobool, label %cond.true, label %cond.false

cond.true:                                        ; preds = %entry
  br label %cond.end

cond.false:                                       ; preds = %entry
  call void @_ZN5boost16assertion_failedEPKcS1_S1_l(ptr noundef @.str.25, ptr noundef @__PRETTY_FUNCTION__._ZNK5boost10shared_ptrIN8QuantLib9GFunctionEEptEv, ptr noundef @.str.26, i64 noundef 784)
  br label %cond.end

cond.end:                                         ; preds = %cond.false, %cond.true
  %px3 = getelementptr inbounds nuw %"class.boost::shared_ptr.54", ptr %this1, i32 0, i32 0
  %1 = load ptr, ptr %px3, align 8, !tbaa !59
  ret ptr %1
}

; Function Attrs: mustprogress uwtable
define linkonce_odr noundef nonnull align 8 dereferenceable(8) ptr @_ZNK5boost10shared_ptrIN8QuantLib9GFunctionEEdeEv(ptr noundef nonnull align 8 dereferenceable(16) %this) #2 comdat align 2 {
entry:
  %this.addr = alloca ptr, align 8
  store ptr %this, ptr %this.addr, align 8, !tbaa !3
  %this1 = load ptr, ptr %this.addr, align 8
  %px = getelementptr inbounds nuw %"class.boost::shared_ptr.54", ptr %this1, i32 0, i32 0
  %0 = load ptr, ptr %px, align 8, !tbaa !59
  %cmp = icmp ne ptr %0, null
  %lnot = xor i1 %cmp, true
  %lnot2 = xor i1 %lnot, true
  %conv = zext i1 %lnot2 to i64
  %expval = call i64 @llvm.expect.i64(i64 %conv, i64 1)
  %tobool = icmp ne i64 %expval, 0
  br i1 %tobool, label %cond.true, label %cond.false

cond.true:                                        ; preds = %entry
  br label %cond.end

cond.false:                                       ; preds = %entry
  call void @_ZN5boost16assertion_failedEPKcS1_S1_l(ptr noundef @.str.25, ptr noundef @__PRETTY_FUNCTION__._ZNK5boost10shared_ptrIN8QuantLib9GFunctionEEdeEv, ptr noundef @.str.26, i64 noundef 778)
  br label %cond.end

cond.end:                                         ; preds = %cond.false, %cond.true
  %px3 = getelementptr inbounds nuw %"class.boost::shared_ptr.54", ptr %this1, i32 0, i32 0
  %1 = load ptr, ptr %px3, align 8, !tbaa !59
  ret ptr %1
}

; Function Attrs: mustprogress uwtable
define noundef double @_ZNK8QuantLib18NumericHaganPricer18ConundrumIntegrand19secondDerivativeOfFEd(ptr noundef nonnull align 8 dereferenceable(88) %this, double noundef %x) #2 align 2 {
entry:
  %this.addr = alloca ptr, align 8
  %x.addr = alloca double, align 8
  %GR = alloca double, align 8
  %G1 = alloca double, align 8
  %G2 = alloca double, align 8
  store ptr %this, ptr %this.addr, align 8, !tbaa !3
  store double %x, ptr %x.addr, align 8, !tbaa !18
  %this1 = load ptr, ptr %this.addr, align 8
  call void @llvm.lifetime.start.p0(i64 8, ptr %GR) #18
  %gFunction_ = getelementptr inbounds nuw %"class.QuantLib::NumericHaganPricer::ConundrumIntegrand", ptr %this1, i32 0, i32 8
  %call = call noundef nonnull align 8 dereferenceable(8) ptr @_ZNK5boost10shared_ptrIN8QuantLib9GFunctionEEdeEv(ptr noundef nonnull align 8 dereferenceable(16) %gFunction_)
  %forwardValue_ = getelementptr inbounds nuw %"class.QuantLib::NumericHaganPricer::ConundrumIntegrand", ptr %this1, i32 0, i32 2
  %0 = load double, ptr %forwardValue_, align 8, !tbaa !109
  %vtable = load ptr, ptr %call, align 8, !tbaa !12
  %vfn = getelementptr inbounds ptr, ptr %vtable, i64 2
  %1 = load ptr, ptr %vfn, align 8
  %call2 = call noundef double %1(ptr noundef nonnull align 8 dereferenceable(8) %call, double noundef %0)
  store double %call2, ptr %GR, align 8, !tbaa !18
  call void @llvm.lifetime.start.p0(i64 8, ptr %G1) #18
  %gFunction_3 = getelementptr inbounds nuw %"class.QuantLib::NumericHaganPricer::ConundrumIntegrand", ptr %this1, i32 0, i32 8
  %call4 = call noundef ptr @_ZNK5boost10shared_ptrIN8QuantLib9GFunctionEEptEv(ptr noundef nonnull align 8 dereferenceable(16) %gFunction_3)
  %2 = load double, ptr %x.addr, align 8, !tbaa !18
  %vtable5 = load ptr, ptr %call4, align 8, !tbaa !12
  %vfn6 = getelementptr inbounds ptr, ptr %vtable5, i64 3
  %3 = load ptr, ptr %vfn6, align 8
  %call7 = call noundef double %3(ptr noundef nonnull align 8 dereferenceable(8) %call4, double noundef %2)
  store double %call7, ptr %G1, align 8, !tbaa !18
  call void @llvm.lifetime.start.p0(i64 8, ptr %G2) #18
  %gFunction_8 = getelementptr inbounds nuw %"class.QuantLib::NumericHaganPricer::ConundrumIntegrand", ptr %this1, i32 0, i32 8
  %call9 = call noundef ptr @_ZNK5boost10shared_ptrIN8QuantLib9GFunctionEEptEv(ptr noundef nonnull align 8 dereferenceable(16) %gFunction_8)
  %4 = load double, ptr %x.addr, align 8, !tbaa !18
  %vtable10 = load ptr, ptr %call9, align 8, !tbaa !12
  %vfn11 = getelementptr inbounds ptr, ptr %vtable10, i64 4
  %5 = load ptr, ptr %vfn11, align 8
  %call12 = call noundef double %5(ptr noundef nonnull align 8 dereferenceable(8) %call9, double noundef %4)
  store double %call12, ptr %G2, align 8, !tbaa !18
  %6 = load double, ptr %G1, align 8, !tbaa !18
  %mul = fmul double 2.000000e+00, %6
  %7 = load double, ptr %GR, align 8, !tbaa !18
  %div = fdiv double %mul, %7
  %8 = load double, ptr %x.addr, align 8, !tbaa !18
  %strike_ = getelementptr inbounds nuw %"class.QuantLib::NumericHaganPricer::ConundrumIntegrand", ptr %this1, i32 0, i32 6
  %9 = load double, ptr %strike_, align 8, !tbaa !112
  %sub = fsub double %8, %9
  %10 = load double, ptr %G2, align 8, !tbaa !18
  %mul13 = fmul double %sub, %10
  %11 = load double, ptr %GR, align 8, !tbaa !18
  %div14 = fdiv double %mul13, %11
  %add = fadd double %div, %div14
  call void @llvm.lifetime.end.p0(i64 8, ptr %G2) #18
  call void @llvm.lifetime.end.p0(i64 8, ptr %G1) #18
  call void @llvm.lifetime.end.p0(i64 8, ptr %GR) #18
  ret double %add
}