; Function Attrs: mustprogress uwtable
define noundef double @_ZNK8QuantLib18NumericHaganPricer18ConundrumIntegrand19secondDerivativeOfFEd(ptr nocapture noundef nonnull readonly align 8 dereferenceable(88) %this, double noundef %x) local_unnamed_addr #7 align 2 {
entry:
  %gFunction_ = getelementptr inbounds nuw i8, ptr %this, i64 72
  %0 = load ptr, ptr %gFunction_, align 8, !tbaa !117
  %cmp.not.i = icmp eq ptr %0, null
  br i1 %cmp.not.i, label %cond.false.i, label %_ZNK5boost10shared_ptrIN8QuantLib9GFunctionEEdeEv.exit, !prof !53

cond.false.i:                                     ; preds = %entry
  tail call void @_ZN5boost16assertion_failedEPKcS1_S1_l(ptr noundef nonnull @.str.25, ptr noundef nonnull @__PRETTY_FUNCTION__._ZNK5boost10shared_ptrIN8QuantLib9GFunctionEEdeEv, ptr noundef nonnull @.str.26, i64 noundef 778)
  %.pre.i = load ptr, ptr %gFunction_, align 8, !tbaa !117
  br label %_ZNK5boost10shared_ptrIN8QuantLib9GFunctionEEdeEv.exit

_ZNK5boost10shared_ptrIN8QuantLib9GFunctionEEdeEv.exit: ; preds = %entry, %cond.false.i
  %1 = phi ptr [ %0, %entry ], [ %.pre.i, %cond.false.i ]
  %forwardValue_ = getelementptr inbounds nuw i8, ptr %this, i64 24
  %2 = load double, ptr %forwardValue_, align 8, !tbaa !189
  %vtable = load ptr, ptr %1, align 8, !tbaa !35
  %vfn = getelementptr inbounds i8, ptr %vtable, i64 16
  %3 = load ptr, ptr %vfn, align 8
  %call2 = tail call noundef double %3(ptr noundef nonnull align 8 dereferenceable(8) %1, double noundef %2)
  %4 = load ptr, ptr %gFunction_, align 8, !tbaa !117
  %cmp.not.i4 = icmp eq ptr %4, null
  br i1 %cmp.not.i4, label %cond.false.i5, label %_ZNK5boost10shared_ptrIN8QuantLib9GFunctionEEptEv.exit, !prof !53

cond.false.i5:                                    ; preds = %_ZNK5boost10shared_ptrIN8QuantLib9GFunctionEEdeEv.exit
  tail call void @_ZN5boost16assertion_failedEPKcS1_S1_l(ptr noundef nonnull @.str.25, ptr noundef nonnull @__PRETTY_FUNCTION__._ZNK5boost10shared_ptrIN8QuantLib9GFunctionEEptEv, ptr noundef nonnull @.str.26, i64 noundef 784)
  %.pre.i6 = load ptr, ptr %gFunction_, align 8, !tbaa !117
  br label %_ZNK5boost10shared_ptrIN8QuantLib9GFunctionEEptEv.exit

_ZNK5boost10shared_ptrIN8QuantLib9GFunctionEEptEv.exit: ; preds = %_ZNK5boost10shared_ptrIN8QuantLib9GFunctionEEdeEv.exit, %cond.false.i5
  %5 = phi ptr [ %4, %_ZNK5boost10shared_ptrIN8QuantLib9GFunctionEEdeEv.exit ], [ %.pre.i6, %cond.false.i5 ]
  %vtable5 = load ptr, ptr %5, align 8, !tbaa !35
  %vfn6 = getelementptr inbounds i8, ptr %vtable5, i64 24
  %6 = load ptr, ptr %vfn6, align 8
  %call7 = tail call noundef double %6(ptr noundef nonnull align 8 dereferenceable(8) %5, double noundef %x)
  %7 = load ptr, ptr %gFunction_, align 8, !tbaa !117
  %cmp.not.i7 = icmp eq ptr %7, null
  br i1 %cmp.not.i7, label %cond.false.i8, label %_ZNK5boost10shared_ptrIN8QuantLib9GFunctionEEptEv.exit10, !prof !53

cond.false.i8:                                    ; preds = %_ZNK5boost10shared_ptrIN8QuantLib9GFunctionEEptEv.exit
  tail call void @_ZN5boost16assertion_failedEPKcS1_S1_l(ptr noundef nonnull @.str.25, ptr noundef nonnull @__PRETTY_FUNCTION__._ZNK5boost10shared_ptrIN8QuantLib9GFunctionEEptEv, ptr noundef nonnull @.str.26, i64 noundef 784)
  %.pre.i9 = load ptr, ptr %gFunction_, align 8, !tbaa !117
  br label %_ZNK5boost10shared_ptrIN8QuantLib9GFunctionEEptEv.exit10

_ZNK5boost10shared_ptrIN8QuantLib9GFunctionEEptEv.exit10: ; preds = %_ZNK5boost10shared_ptrIN8QuantLib9GFunctionEEptEv.exit, %cond.false.i8
  %8 = phi ptr [ %7, %_ZNK5boost10shared_ptrIN8QuantLib9GFunctionEEptEv.exit ], [ %.pre.i9, %cond.false.i8 ]
  %vtable10 = load ptr, ptr %8, align 8, !tbaa !35
  %vfn11 = getelementptr inbounds i8, ptr %vtable10, i64 32
  %9 = load ptr, ptr %vfn11, align 8
  %call12 = tail call noundef double %9(ptr noundef nonnull align 8 dereferenceable(8) %8, double noundef %x)
  %mul = fmul double %call7, 2.000000e+00
  %div = fdiv double %mul, %call2
  %strike_ = getelementptr inbounds nuw i8, ptr %this, i64 56
  %10 = load double, ptr %strike_, align 8, !tbaa !193
  %sub = fsub double %x, %10
  %mul13 = fmul double %call12, %sub
  %div14 = fdiv double %mul13, %call2
  %add = fadd double %div, %div14
  ret double %add
}